target datalayout = "e-m:e-p270:32:32-p271:32:32-p272:64:64-i64:64-i128:128-f80:128-n8:16:32:64-S128"
target triple = "x86_64-pc-linux-gnu"

%struct.dt_iop_lut3d_gui_data_t = type { ptr, ptr, ptr, ptr, ptr, ptr, ptr, i64 }
%struct.dirent = type { i64, i64, i16, i8, [256 x i8] }

@invalid_filepath_prefix = hidden constant [12 x i8] c"INVALID >> \00", align 1
@.str.75 = private unnamed_addr constant [2 x i8] c".\00", align 1

; Function Attrs: nounwind uwtable
define hidden void @filepath_set_unix_separator(ptr noundef %0) #0 {
  %2 = alloca ptr, align 8
  %3 = alloca i32, align 4
  %4 = alloca i32, align 4
  store ptr %0, ptr %2, align 8, !tbaa !41
  call void @llvm.lifetime.start.p0(i64 4, ptr %3) #13
  %5 = load ptr, ptr %2, align 8, !tbaa !41
  %6 = call i64 @strlen(ptr noundef %5) #15
  %7 = trunc i64 %6 to i32
  store i32 %7, ptr %3, align 4, !tbaa !16
  call void @llvm.lifetime.start.p0(i64 4, ptr %4) #13
  store i32 0, ptr %4, align 4, !tbaa !16
  br label %8

8:                                                ; preds = %27, %1
  %9 = load i32, ptr %4, align 4, !tbaa !16
  %10 = load i32, ptr %3, align 4, !tbaa !16
  %11 = icmp slt i32 %9, %10
  br i1 %11, label %13, label %12

12:                                               ; preds = %8
  call void @llvm.lifetime.end.p0(i64 4, ptr %4) #13
  br label %30

13:                                               ; preds = %8
  %14 = load ptr, ptr %2, align 8, !tbaa !41
  %15 = load i32, ptr %4, align 4, !tbaa !16
  %16 = sext i32 %15 to i64
  %17 = getelementptr inbounds i8, ptr %14, i64 %16
  %18 = load i8, ptr %17, align 1, !tbaa !47
  %19 = sext i8 %18 to i32
  %20 = icmp eq i32 %19, 92
  br i1 %20, label %21, label %26

21:                                               ; preds = %13
  %22 = load ptr, ptr %2, align 8, !tbaa !41
  %23 = load i32, ptr %4, align 4, !tbaa !16
  %24 = sext i32 %23 to i64
  %25 = getelementptr inbounds i8, ptr %22, i64 %24
  store i8 47, ptr %25, align 1, !tbaa !47
  br label %26

26:                                               ; preds = %21, %13
  br label %27

27:                                               ; preds = %26
  %28 = load i32, ptr %4, align 4, !tbaa !16
  %29 = add nsw i32 %28, 1
  store i32 %29, ptr %4, align 4, !tbaa !16
  br label %8

30:                                               ; preds = %12
  call void @llvm.lifetime.end.p0(i64 4, ptr %3) #13
  ret void
}

; Function Attrs: nounwind uwtable
define internal void @update_filepath_combobox(ptr noundef %0, ptr noundef %1, ptr noundef %2) #0 {
  %4 = alloca ptr, align 8
  %5 = alloca ptr, align 8
  %6 = alloca ptr, align 8
  %7 = alloca ptr, align 8
  %8 = alloca ptr, align 8
  %9 = alloca ptr, align 8
  %10 = alloca i32, align 4
  %11 = alloca i32, align 4
  %12 = alloca ptr, align 8
  %13 = alloca ptr, align 8
  %14 = alloca ptr, align 8
  store ptr %0, ptr %4, align 8, !tbaa !166
  store ptr %1, ptr %5, align 8, !tbaa !41
  store ptr %2, ptr %6, align 8, !tbaa !41
  %15 = load ptr, ptr %5, align 8, !tbaa !41
  %16 = getelementptr inbounds i8, ptr %15, i64 0
  %17 = load i8, ptr %16, align 1, !tbaa !47
  %18 = icmp ne i8 %17, 0
  br i1 %18, label %23, label %19

19:                                               ; preds = %3
  %20 = load ptr, ptr %4, align 8, !tbaa !166
  %21 = getelementptr inbounds nuw %struct.dt_iop_lut3d_gui_data_t, ptr %20, i32 0, i32 1
  %22 = load ptr, ptr %21, align 8, !tbaa !181
  call void @dt_bauhaus_combobox_clear(ptr noundef %22)
  br label %109

23:                                               ; preds = %3
  %24 = load ptr, ptr %4, align 8, !tbaa !166
  %25 = getelementptr inbounds nuw %struct.dt_iop_lut3d_gui_data_t, ptr %24, i32 0, i32 1
  %26 = load ptr, ptr %25, align 8, !tbaa !181
  %27 = load ptr, ptr %5, align 8, !tbaa !41
  %28 = call i32 @dt_bauhaus_combobox_set_from_text(ptr noundef %26, ptr noundef %27)
  %29 = icmp ne i32 %28, 0
  br i1 %29, label %108, label %30

30:                                               ; preds = %23
  call void @llvm.lifetime.start.p0(i64 8, ptr %7) #13
  %31 = load ptr, ptr %5, align 8, !tbaa !41
  %32 = call noalias ptr @g_path_get_dirname(ptr noundef %31)
  store ptr %32, ptr %7, align 8, !tbaa !41
  call void @llvm.lifetime.start.p0(i64 8, ptr %8) #13
  %33 = load ptr, ptr %6, align 8, !tbaa !41
  %34 = load ptr, ptr %7, align 8, !tbaa !41
  %35 = call noalias ptr (ptr, ...) @g_build_filename(ptr noundef %33, ptr noundef %34, ptr noundef null)
  store ptr %35, ptr %8, align 8, !tbaa !41
  call void @llvm.lifetime.start.p0(i64 8, ptr %9) #13
  call void @llvm.lifetime.start.p0(i64 4, ptr %10) #13
  %36 = load ptr, ptr %8, align 8, !tbaa !41
  %37 = call i32 @scandir(ptr noundef %36, ptr noundef %9, ptr noundef @check_extension, ptr noundef @alphasort)
  store i32 %37, ptr %10, align 4, !tbaa !16
  %38 = load ptr, ptr %4, align 8, !tbaa !166
  %39 = getelementptr inbounds nuw %struct.dt_iop_lut3d_gui_data_t, ptr %38, i32 0, i32 1
  %40 = load ptr, ptr %39, align 8, !tbaa !181
  call void @dt_bauhaus_combobox_clear(ptr noundef %40)
  call void @llvm.lifetime.start.p0(i64 4, ptr %11) #13
  store i32 0, ptr %11, align 4, !tbaa !16
  br label %41

41:                                               ; preds = %77, %30
  %42 = load i32, ptr %11, align 4, !tbaa !16
  %43 = load i32, ptr %10, align 4, !tbaa !16
  %44 = icmp slt i32 %42, %43
  br i1 %44, label %46, label %45

45:                                               ; preds = %41
  call void @llvm.lifetime.end.p0(i64 4, ptr %11) #13
  br label %80

46:                                               ; preds = %41
  call void @llvm.lifetime.start.p0(i64 8, ptr %12) #13
  %47 = load ptr, ptr %9, align 8, !tbaa !182
  %48 = load i32, ptr %11, align 4, !tbaa !16
  %49 = sext i32 %48 to i64
  %50 = getelementptr inbounds ptr, ptr %47, i64 %49
  %51 = load ptr, ptr %50, align 8, !tbaa !176
  %52 = getelementptr inbounds nuw %struct.dirent, ptr %51, i32 0, i32 4
  %53 = getelementptr inbounds [256 x i8], ptr %52, i64 0, i64 0
  store ptr %53, ptr %12, align 8, !tbaa !41
  call void @llvm.lifetime.start.p0(i64 8, ptr %13) #13
  %54 = load ptr, ptr %7, align 8, !tbaa !41
  %55 = call i32 @strcmp(ptr noundef %54, ptr noundef @.str.75) #15
  %56 = icmp ne i32 %55, 0
  br i1 %56, label %57, label %61

57:                                               ; preds = %46
  %58 = load ptr, ptr %7, align 8, !tbaa !41
  %59 = load ptr, ptr %12, align 8, !tbaa !41
  %60 = call noalias ptr (ptr, ...) @g_build_filename(ptr noundef %58, ptr noundef %59, ptr noundef null)
  br label %64

61:                                               ; preds = %46
  %62 = load ptr, ptr %12, align 8, !tbaa !41
  %63 = call noalias ptr @g_strdup(ptr noundef %62)
  br label %64

64:                                               ; preds = %61, %57
  %65 = phi ptr [ %60, %57 ], [ %63, %61 ]
  store ptr %65, ptr %13, align 8, !tbaa !41
  %66 = load ptr, ptr %13, align 8, !tbaa !41
  call void @filepath_set_unix_separator(ptr noundef %66)
  %67 = load ptr, ptr %4, align 8, !tbaa !166
  %68 = getelementptr inbounds nuw %struct.dt_iop_lut3d_gui_data_t, ptr %67, i32 0, i32 1
  %69 = load ptr, ptr %68, align 8, !tbaa !181
  %70 = load ptr, ptr %13, align 8, !tbaa !41
  call void @dt_bauhaus_combobox_add_aligned(ptr noundef %69, ptr noundef %70, i32 noundef 0)
  %71 = load ptr, ptr %13, align 8, !tbaa !41
  call void @g_free(ptr noundef %71)
  %72 = load ptr, ptr %9, align 8, !tbaa !182
  %73 = load i32, ptr %11, align 4, !tbaa !16
  %74 = sext i32 %73 to i64
  %75 = getelementptr inbounds ptr, ptr %72, i64 %74
  %76 = load ptr, ptr %75, align 8, !tbaa !176
  call void @free(ptr noundef %76) #13
  call void @llvm.lifetime.end.p0(i64 8, ptr %13) #13
  call void @llvm.lifetime.end.p0(i64 8, ptr %12) #13
  br label %77

77:                                               ; preds = %64
  %78 = load i32, ptr %11, align 4, !tbaa !16
  %79 = add nsw i32 %78, 1
  store i32 %79, ptr %11, align 4, !tbaa !16
  br label %41

80:                                               ; preds = %45
  %81 = load i32, ptr %10, align 4, !tbaa !16
  %82 = icmp ne i32 %81, -1
  br i1 %82, label %83, label %85

83:                                               ; preds = %80
  %84 = load ptr, ptr %9, align 8, !tbaa !182
  call void @free(ptr noundef %84) #13
  br label %85

85:                                               ; preds = %83, %80
  %86 = load ptr, ptr %4, align 8, !tbaa !166
  %87 = getelementptr inbounds nuw %struct.dt_iop_lut3d_gui_data_t, ptr %86, i32 0, i32 1
  %88 = load ptr, ptr %87, align 8, !tbaa !181
  %89 = load ptr, ptr %5, align 8, !tbaa !41
  %90 = call i32 @dt_bauhaus_combobox_set_from_text(ptr noundef %88, ptr noundef %89)
  %91 = icmp ne i32 %90, 0
  br i1 %91, label %105, label %92

92:                                               ; preds = %85
  call void @llvm.lifetime.start.p0(i64 8, ptr %14) #13
  %93 = load ptr, ptr %5, align 8, !tbaa !41
  %94 = call noalias ptr (ptr, ...) @g_strconcat(ptr noundef @invalid_filepath_prefix, ptr noundef %93, ptr noundef null)
  store ptr %94, ptr %14, align 8, !tbaa !41
  %95 = load ptr, ptr %4, align 8, !tbaa !166
  %96 = getelementptr inbounds nuw %struct.dt_iop_lut3d_gui_data_t, ptr %95, i32 0, i32 1
  %97 = load ptr, ptr %96, align 8, !tbaa !181
  %98 = load ptr, ptr %14, align 8, !tbaa !41
  call void @dt_bauhaus_combobox_add_aligned(ptr noundef %97, ptr noundef %98, i32 noundef 0)
  %99 = load ptr, ptr %4, align 8, !tbaa !166
  %100 = getelementptr inbounds nuw %struct.dt_iop_lut3d_gui_data_t, ptr %99, i32 0, i32 1
  %101 = load ptr, ptr %100, align 8, !tbaa !181
  %102 = load ptr, ptr %14, align 8, !tbaa !41
  %103 = call i32 @dt_bauhaus_combobox_set_from_text(ptr noundef %101, ptr noundef %102)
  %104 = load ptr, ptr %14, align 8, !tbaa !41
  call void @g_free(ptr noundef %104)
  call void @llvm.lifetime.end.p0(i64 8, ptr %14) #13
  br label %105

105:                                              ; preds = %92, %85
  %106 = load ptr, ptr %7, align 8, !tbaa !41
  call void @g_free(ptr noundef %106)
  %107 = load ptr, ptr %8, align 8, !tbaa !41
  call void @g_free(ptr noundef %107)
  call void @llvm.lifetime.end.p0(i64 4, ptr %10) #13
  call void @llvm.lifetime.end.p0(i64 8, ptr %9) #13
  call void @llvm.lifetime.end.p0(i64 8, ptr %8) #13
  call void @llvm.lifetime.end.p0(i64 8, ptr %7) #13
  br label %108

108:                                              ; preds = %105, %23
  br label %109

109:                                              ; preds = %108, %19
  ret void
}