; Function Attrs: nounwind uwtable
define internal fastcc void @update_filepath_combobox(ptr noundef readonly captures(none) %0, ptr noundef %1, ptr noundef %2) unnamed_addr #1 {
  %4 = alloca ptr, align 8
  %5 = load i8, ptr %1, align 1, !tbaa !73
  %.not = icmp eq i8 %5, 0
  %6 = getelementptr inbounds nuw i8, ptr %0, i64 8
  %7 = load ptr, ptr %6, align 8, !tbaa !140
  br i1 %.not, label %8, label %9

8:                                                ; preds = %3
  tail call void @dt_bauhaus_combobox_clear(ptr noundef %7) #25
  br label %53

9:                                                ; preds = %3
  %10 = tail call i32 @dt_bauhaus_combobox_set_from_text(ptr noundef %7, ptr noundef nonnull %1) #25
  %.not33 = icmp eq i32 %10, 0
  br i1 %.not33, label %11, label %53

11:                                               ; preds = %9
  %12 = tail call noalias ptr @g_path_get_dirname(ptr noundef nonnull %1) #25
  %13 = tail call noalias ptr (ptr, ...) @g_build_filename(ptr noundef %2, ptr noundef %12, ptr noundef null) #25
  call void @llvm.lifetime.start.p0(i64 8, ptr nonnull %4) #25
  %14 = call i32 @scandir(ptr noundef %13, ptr noundef nonnull %4, ptr noundef nonnull @check_extension, ptr noundef nonnull @alphasort) #25
  %15 = load ptr, ptr %6, align 8, !tbaa !140
  call void @dt_bauhaus_combobox_clear(ptr noundef %15) #25
  %16 = icmp sgt i32 %14, 0
  br i1 %16, label %sub_0.lr.ph, label %._crit_edge

sub_0.lr.ph:                                      ; preds = %11
  %17 = getelementptr inbounds nuw i8, ptr %12, i64 1
  %wide.trip.count = zext nneg i32 %14 to i64
  br label %sub_0

._crit_edge:                                      ; preds = %filepath_set_unix_separator.exit, %11
  %.not34 = icmp eq i32 %14, -1
  br i1 %.not34, label %44, label %42

sub_0:                                            ; preds = %sub_0.lr.ph, %filepath_set_unix_separator.exit
  %indvars.iv = phi i64 [ 0, %sub_0.lr.ph ], [ %indvars.iv.next, %filepath_set_unix_separator.exit ]
  %18 = load ptr, ptr %4, align 8, !tbaa !144
  %19 = getelementptr inbounds nuw ptr, ptr %18, i64 %indvars.iv
  %20 = load ptr, ptr %19, align 8, !tbaa !146
  %21 = getelementptr inbounds nuw i8, ptr %20, i64 19
  %22 = load i8, ptr %12, align 1
  %.not38 = icmp eq i8 %22, 46
  br i1 %.not38, label %.tail, label %.tail.thread

.tail:                                            ; preds = %sub_0
  %23 = load i8, ptr %17, align 1
  %24 = icmp eq i8 %23, 0
  br i1 %24, label %26, label %.tail.thread

.tail.thread:                                     ; preds = %sub_0, %.tail
  %25 = call noalias ptr (ptr, ...) @g_build_filename(ptr noundef nonnull %12, ptr noundef nonnull %21, ptr noundef null) #25
  br label %28

26:                                               ; preds = %.tail
  %27 = call noalias ptr @g_strdup(ptr noundef nonnull %21) #25
  br label %28

28:                                               ; preds = %26, %.tail.thread
  %29 = phi ptr [ %25, %.tail.thread ], [ %27, %26 ]
  %30 = call i64 @strlen(ptr noundef nonnull dereferenceable(1) %29) #27
  %31 = trunc i64 %30 to i32
  %32 = icmp sgt i32 %31, 0
  br i1 %32, label %.lr.ph.preheader.i, label %filepath_set_unix_separator.exit

.lr.ph.preheader.i:                               ; preds = %28
  %wide.trip.count.i = and i64 %30, 2147483647
  br label %.lr.ph.i

.lr.ph.i:                                         ; preds = %37, %.lr.ph.preheader.i
  %indvars.iv.i = phi i64 [ 0, %.lr.ph.preheader.i ], [ %indvars.iv.next.i, %37 ]
  %33 = getelementptr inbounds nuw i8, ptr %29, i64 %indvars.iv.i
  %34 = load i8, ptr %33, align 1, !tbaa !73
  %35 = icmp eq i8 %34, 92
  br i1 %35, label %36, label %37

36:                                               ; preds = %.lr.ph.i
  store i8 47, ptr %33, align 1, !tbaa !73
  br label %37

37:                                               ; preds = %36, %.lr.ph.i
  %indvars.iv.next.i = add nuw nsw i64 %indvars.iv.i, 1
  %exitcond.not.i = icmp eq i64 %indvars.iv.next.i, %wide.trip.count.i
  br i1 %exitcond.not.i, label %filepath_set_unix_separator.exit, label %.lr.ph.i

filepath_set_unix_separator.exit:                 ; preds = %37, %28
  %38 = load ptr, ptr %6, align 8, !tbaa !140
  call void @dt_bauhaus_combobox_add_aligned(ptr noundef %38, ptr noundef nonnull %29, i32 noundef 0) #25
  call void @g_free(ptr noundef nonnull %29) #25
  %39 = load ptr, ptr %4, align 8, !tbaa !144
  %40 = getelementptr inbounds nuw ptr, ptr %39, i64 %indvars.iv
  %41 = load ptr, ptr %40, align 8, !tbaa !146
  call void @free(ptr noundef %41) #25
  %indvars.iv.next = add nuw nsw i64 %indvars.iv, 1
  %exitcond.not = icmp eq i64 %indvars.iv.next, %wide.trip.count
  br i1 %exitcond.not, label %._crit_edge, label %sub_0

42:                                               ; preds = %._crit_edge
  %43 = load ptr, ptr %4, align 8, !tbaa !144
  call void @free(ptr noundef %43) #25
  br label %44

44:                                               ; preds = %42, %._crit_edge
  %45 = load ptr, ptr %6, align 8, !tbaa !140
  %46 = call i32 @dt_bauhaus_combobox_set_from_text(ptr noundef %45, ptr noundef nonnull %1) #25
  %.not35 = icmp eq i32 %46, 0
  br i1 %.not35, label %47, label %52

47:                                               ; preds = %44
  %48 = call noalias ptr (ptr, ...) @g_strconcat(ptr noundef nonnull @invalid_filepath_prefix, ptr noundef nonnull %1, ptr noundef null) #25
  %49 = load ptr, ptr %6, align 8, !tbaa !140
  call void @dt_bauhaus_combobox_add_aligned(ptr noundef %49, ptr noundef %48, i32 noundef 0) #25
  %50 = load ptr, ptr %6, align 8, !tbaa !140
  %51 = call i32 @dt_bauhaus_combobox_set_from_text(ptr noundef %50, ptr noundef %48) #25
  call void @g_free(ptr noundef %48) #25
  br label %52

52:                                               ; preds = %47, %44
  call void @g_free(ptr noundef %12) #25
  call void @g_free(ptr noundef %13) #25
  call void @llvm.lifetime.end.p0(i64 8, ptr nonnull %4) #25
  br label %53

53:                                               ; preds = %9, %52, %8
  ret void
}